; Function Attrs: nounwind uwtable
define hidden ptr @X509_REQ_get_pubkey(ptr noundef readonly captures(address_is_null) %0) local_unnamed_addr #0 {
  %2 = icmp eq ptr %0, null
  br i1 %2, label %10, label %3

3:                                                ; preds = %1
  %4 = load ptr, ptr %0, align 8, !tbaa !6
  %5 = icmp eq ptr %4, null
  br i1 %5, label %10, label %6

6:                                                ; preds = %3
  %7 = getelementptr inbounds nuw i8, ptr %4, i64 40
  %8 = load ptr, ptr %7, align 8, !tbaa !27
  %9 = tail call ptr @X509_PUBKEY_get(ptr noundef %8) #7
  br label %10

10:                                               ; preds = %1, %3, %6
  %.0 = phi ptr [ %9, %6 ], [ null, %3 ], [ null, %1 ]
  ret ptr %.0
}